; Function Attrs: mustprogress uwtable
define void @_ZN5boost9unit_test16results_reporter10set_streamERSo(ptr noundef nonnull align 8 dereferenceable(8) %0) local_unnamed_addr #3 personality ptr @__gxx_personality_v0 {
  %2 = load atomic i8, ptr @_ZGVZN5boost9unit_test16results_reporter12_GLOBAL__N_19s_rr_implEvE8the_inst acquire, align 8
  %3 = icmp eq i8 %2, 0
  br i1 %3, label %4, label %_ZN5boost9unit_test16results_reporter12_GLOBAL__N_19s_rr_implEv.exit, !prof !3

4:                                                ; preds = %1
  %5 = tail call i32 @__cxa_guard_acquire(ptr nonnull @_ZGVZN5boost9unit_test16results_reporter12_GLOBAL__N_19s_rr_implEvE8the_inst) #9
  %.not.i = icmp eq i32 %5, 0
  br i1 %.not.i, label %_ZN5boost9unit_test16results_reporter12_GLOBAL__N_19s_rr_implEv.exit, label %6

6:                                                ; preds = %4
  invoke fastcc void @_ZN5boost9unit_test16results_reporter12_GLOBAL__N_121results_reporter_implC2Ev()
          to label %7 unwind label %9

7:                                                ; preds = %6
  %8 = tail call i32 @__cxa_atexit(ptr nonnull @_ZN5boost9unit_test16results_reporter12_GLOBAL__N_121results_reporter_implD2Ev, ptr nonnull @_ZZN5boost9unit_test16results_reporter12_GLOBAL__N_19s_rr_implEvE8the_inst, ptr nonnull @__dso_handle) #9
  tail call void @__cxa_guard_release(ptr nonnull @_ZGVZN5boost9unit_test16results_reporter12_GLOBAL__N_19s_rr_implEvE8the_inst) #9
  br label %_ZN5boost9unit_test16results_reporter12_GLOBAL__N_19s_rr_implEv.exit

common.resume:                                    ; preds = %18, %9
  %common.resume.op = phi { ptr, i32 } [ %10, %9 ], [ %19, %18 ]
  tail call void @__cxa_guard_abort(ptr nonnull @_ZGVZN5boost9unit_test16results_reporter12_GLOBAL__N_19s_rr_implEvE8the_inst) #9
  resume { ptr, i32 } %common.resume.op

9:                                                ; preds = %6
  %10 = landingpad { ptr, i32 }
          cleanup
  br label %common.resume

_ZN5boost9unit_test16results_reporter12_GLOBAL__N_19s_rr_implEv.exit: ; preds = %1, %4, %7
  store ptr %0, ptr getelementptr inbounds nuw (i8, ptr @_ZZN5boost9unit_test16results_reporter12_GLOBAL__N_19s_rr_implEvE8the_inst, i64 8), align 8, !tbaa !13
  %11 = load atomic i8, ptr @_ZGVZN5boost9unit_test16results_reporter12_GLOBAL__N_19s_rr_implEvE8the_inst acquire, align 8
  %12 = icmp eq i8 %11, 0
  br i1 %12, label %13, label %20, !prof !3

13:                                               ; preds = %_ZN5boost9unit_test16results_reporter12_GLOBAL__N_19s_rr_implEv.exit
  %14 = tail call i32 @__cxa_guard_acquire(ptr nonnull @_ZGVZN5boost9unit_test16results_reporter12_GLOBAL__N_19s_rr_implEvE8the_inst) #9
  %.not.i3 = icmp eq i32 %14, 0
  br i1 %.not.i3, label %20, label %15

15:                                               ; preds = %13
  invoke fastcc void @_ZN5boost9unit_test16results_reporter12_GLOBAL__N_121results_reporter_implC2Ev()
          to label %16 unwind label %18

16:                                               ; preds = %15
  %17 = tail call i32 @__cxa_atexit(ptr nonnull @_ZN5boost9unit_test16results_reporter12_GLOBAL__N_121results_reporter_implD2Ev, ptr nonnull @_ZZN5boost9unit_test16results_reporter12_GLOBAL__N_19s_rr_implEvE8the_inst, ptr nonnull @__dso_handle) #9
  tail call void @__cxa_guard_release(ptr nonnull @_ZGVZN5boost9unit_test16results_reporter12_GLOBAL__N_19s_rr_implEvE8the_inst) #9
  br label %20

18:                                               ; preds = %15
  %19 = landingpad { ptr, i32 }
          cleanup
  br label %common.resume

20:                                               ; preds = %16, %13, %_ZN5boost9unit_test16results_reporter12_GLOBAL__N_19s_rr_implEv.exit
  %21 = tail call noalias noundef nonnull dereferenceable(32) ptr @_Znwm(i64 noundef 32) #10
  %22 = load ptr, ptr %0, align 8, !tbaa !14
  %23 = getelementptr i8, ptr %22, i64 -24
  %24 = load i64, ptr %23, align 8
  %25 = getelementptr inbounds i8, ptr %0, i64 %24
  store ptr %25, ptr %21, align 8, !tbaa !16
  %26 = getelementptr inbounds nuw i8, ptr %21, i64 8
  %27 = getelementptr inbounds nuw i8, ptr %25, i64 24
  %28 = load i32, ptr %27, align 8, !tbaa !17
  store i32 %28, ptr %26, align 8, !tbaa !25
  %29 = getelementptr inbounds nuw i8, ptr %21, i64 16
  %30 = getelementptr inbounds nuw i8, ptr %25, i64 8
  %31 = load i64, ptr %30, align 8, !tbaa !27
  store i64 %31, ptr %29, align 8, !tbaa !28
  %32 = getelementptr inbounds nuw i8, ptr %21, i64 24
  %33 = getelementptr inbounds nuw i8, ptr %25, i64 16
  %34 = load i64, ptr %33, align 8, !tbaa !29
  store i64 %34, ptr %32, align 8, !tbaa !30
  %35 = load ptr, ptr getelementptr inbounds nuw (i8, ptr @_ZZN5boost9unit_test16results_reporter12_GLOBAL__N_19s_rr_implEvE8the_inst, i64 16), align 8, !tbaa !31
  store ptr %21, ptr getelementptr inbounds nuw (i8, ptr @_ZZN5boost9unit_test16results_reporter12_GLOBAL__N_19s_rr_implEvE8the_inst, i64 16), align 8, !tbaa !31
  %36 = icmp eq ptr %35, null
  br i1 %36, label %_ZN5boost10scoped_ptrINS_2io18ios_base_all_saverEE5resetEPS2_.exit, label %37

37:                                               ; preds = %20
  %38 = load ptr, ptr %35, align 8, !tbaa !32
  %39 = getelementptr inbounds nuw i8, ptr %35, i64 24
  %40 = load i64, ptr %39, align 8, !tbaa !30
  %41 = getelementptr inbounds nuw i8, ptr %38, i64 16
  store i64 %40, ptr %41, align 8, !tbaa !29
  %42 = getelementptr inbounds nuw i8, ptr %35, i64 16
  %43 = load i64, ptr %42, align 8, !tbaa !28
  %44 = getelementptr inbounds nuw i8, ptr %38, i64 8
  store i64 %43, ptr %44, align 8, !tbaa !27
  %45 = getelementptr inbounds nuw i8, ptr %35, i64 8
  %46 = load i32, ptr %45, align 8, !tbaa !25
  %47 = getelementptr inbounds nuw i8, ptr %38, i64 24
  store i32 %46, ptr %47, align 8, !tbaa !17
  tail call void @_ZdlPvm(ptr noundef nonnull %35, i64 noundef 32) #11
  br label %_ZN5boost10scoped_ptrINS_2io18ios_base_all_saverEE5resetEPS2_.exit

_ZN5boost10scoped_ptrINS_2io18ios_base_all_saverEE5resetEPS2_.exit: ; preds = %20, %37
  ret void
}